target datalayout = "e-m:e-p270:32:32-p271:32:32-p272:64:64-i64:64-i128:128-f80:128-n8:16:32:64-S128"
target triple = "x86_64-pc-linux-gnu"

%struct.TParser = type { ptr, i32, ptr, ptr, i8, i32, ptr, i8, i8, i8, ptr, i32, i32, i32 }
%struct.TParserPosition = type { i32, i32, i32, i32, i32, i32, ptr, ptr }
%struct.FunctionCallInfoBaseData = type { ptr, ptr, ptr, i32, i8, i16, [0 x %struct.NullableDatum] }
%struct.NullableDatum = type { i64, i8 }

; Function Attrs: nounwind uwtable
define internal void @TParserClose(ptr noundef %0) #0 {
  %2 = alloca ptr, align 8
  %3 = alloca ptr, align 8
  store ptr %0, ptr %2, align 8
  br label %4

4:                                                ; preds = %9, %1
  %5 = load ptr, ptr %2, align 8
  %6 = getelementptr inbounds nuw %struct.TParser, ptr %5, i32 0, i32 6
  %7 = load ptr, ptr %6, align 8
  %8 = icmp ne ptr %7, null
  br i1 %8, label %9, label %21

9:                                                ; preds = %4
  call void @llvm.lifetime.start.p0(i64 8, ptr %3) #11
  %10 = load ptr, ptr %2, align 8
  %11 = getelementptr inbounds nuw %struct.TParser, ptr %10, i32 0, i32 6
  %12 = load ptr, ptr %11, align 8
  %13 = getelementptr inbounds nuw %struct.TParserPosition, ptr %12, i32 0, i32 6
  %14 = load ptr, ptr %13, align 8
  store ptr %14, ptr %3, align 8
  %15 = load ptr, ptr %2, align 8
  %16 = getelementptr inbounds nuw %struct.TParser, ptr %15, i32 0, i32 6
  %17 = load ptr, ptr %16, align 8
  call void @pfree(ptr noundef %17)
  %18 = load ptr, ptr %3, align 8
  %19 = load ptr, ptr %2, align 8
  %20 = getelementptr inbounds nuw %struct.TParser, ptr %19, i32 0, i32 6
  store ptr %18, ptr %20, align 8
  call void @llvm.lifetime.end.p0(i64 8, ptr %3) #11
  br label %4, !llvm.loop !11

21:                                               ; preds = %4
  %22 = load ptr, ptr %2, align 8
  %23 = getelementptr inbounds nuw %struct.TParser, ptr %22, i32 0, i32 2
  %24 = load ptr, ptr %23, align 8
  %25 = icmp ne ptr %24, null
  br i1 %25, label %26, label %30

26:                                               ; preds = %21
  %27 = load ptr, ptr %2, align 8
  %28 = getelementptr inbounds nuw %struct.TParser, ptr %27, i32 0, i32 2
  %29 = load ptr, ptr %28, align 8
  call void @pfree(ptr noundef %29)
  br label %30

30:                                               ; preds = %26, %21
  %31 = load ptr, ptr %2, align 8
  %32 = getelementptr inbounds nuw %struct.TParser, ptr %31, i32 0, i32 3
  %33 = load ptr, ptr %32, align 8
  %34 = icmp ne ptr %33, null
  br i1 %34, label %35, label %39

35:                                               ; preds = %30
  %36 = load ptr, ptr %2, align 8
  %37 = getelementptr inbounds nuw %struct.TParser, ptr %36, i32 0, i32 3
  %38 = load ptr, ptr %37, align 8
  call void @pfree(ptr noundef %38)
  br label %39

39:                                               ; preds = %35, %30
  %40 = load ptr, ptr %2, align 8
  call void @pfree(ptr noundef %40)
  ret void
}

; Function Attrs: inlinehint nounwind uwtable
define internal ptr @DatumGetPointer(i64 noundef %0) #3 {
  %2 = alloca i64, align 8
  store i64 %0, ptr %2, align 8
  %3 = load i64, ptr %2, align 8
  %4 = inttoptr i64 %3 to ptr
  ret ptr %4
}

; Function Attrs: nounwind uwtable
define dso_local i64 @prsd_end(ptr noundef %0) #0 {
  %2 = alloca ptr, align 8
  %3 = alloca ptr, align 8
  store ptr %0, ptr %2, align 8
  call void @llvm.lifetime.start.p0(i64 8, ptr %3) #11
  %4 = load ptr, ptr %2, align 8
  %5 = getelementptr inbounds nuw %struct.FunctionCallInfoBaseData, ptr %4, i32 0, i32 6
  %6 = getelementptr inbounds [0 x %struct.NullableDatum], ptr %5, i64 0, i64 0
  %7 = getelementptr inbounds nuw %struct.NullableDatum, ptr %6, i32 0, i32 0
  %8 = load i64, ptr %7, align 8
  %9 = call ptr @DatumGetPointer(i64 noundef %8)
  store ptr %9, ptr %3, align 8
  %10 = load ptr, ptr %3, align 8
  call void @TParserClose(ptr noundef %10)
  call void @llvm.lifetime.end.p0(i64 8, ptr %3) #11
  ret i64 0
}