; Function Attrs: nounwind uwtable
define dso_local noundef i64 @prsd_end(ptr noundef readonly captures(none) %0) local_unnamed_addr #0 {
  %2 = getelementptr inbounds nuw i8, ptr %0, i64 32
  %3 = load i64, ptr %2, align 8
  %4 = inttoptr i64 %3 to ptr
  %5 = getelementptr inbounds nuw i8, ptr %4, i64 40
  %6 = load ptr, ptr %5, align 8
  %.not14.i = icmp eq ptr %6, null
  br i1 %.not14.i, label %._crit_edge.i, label %.lr.ph.i

.lr.ph.i:                                         ; preds = %1, %.lr.ph.i
  %7 = phi ptr [ %9, %.lr.ph.i ], [ %6, %1 ]
  %8 = getelementptr inbounds nuw i8, ptr %7, i64 24
  %9 = load ptr, ptr %8, align 8
  tail call void @pfree(ptr noundef nonnull %7) #16
  store ptr %9, ptr %5, align 8
  %.not.i = icmp eq ptr %9, null
  br i1 %.not.i, label %._crit_edge.i, label %.lr.ph.i, !llvm.loop !12

._crit_edge.i:                                    ; preds = %.lr.ph.i, %1
  %10 = getelementptr inbounds nuw i8, ptr %4, i64 16
  %11 = load ptr, ptr %10, align 8
  %.not12.i = icmp eq ptr %11, null
  br i1 %.not12.i, label %13, label %12

12:                                               ; preds = %._crit_edge.i
  tail call void @pfree(ptr noundef nonnull %11) #16
  br label %13

13:                                               ; preds = %12, %._crit_edge.i
  %14 = getelementptr inbounds nuw i8, ptr %4, i64 24
  %15 = load ptr, ptr %14, align 8
  %.not13.i = icmp eq ptr %15, null
  br i1 %.not13.i, label %TParserClose.exit, label %16

16:                                               ; preds = %13
  tail call void @pfree(ptr noundef nonnull %15) #16
  br label %TParserClose.exit

TParserClose.exit:                                ; preds = %13, %16
  tail call void @pfree(ptr noundef nonnull %4) #16
  ret i64 0
}